target datalayout = "e-m:e-p270:32:32-p271:32:32-p272:64:64-i64:64-i128:128-f80:128-n8:16:32:64-S128"
target triple = "x86_64-pc-linux-gnu"

%struct.darktable_t = type { %struct.dt_codepath_t, i32, i32, ptr, ptr, ptr, ptr, ptr, ptr, ptr, ptr, ptr, ptr, ptr, ptr, ptr, ptr, ptr, ptr, ptr, ptr, ptr, ptr, ptr, ptr, ptr, ptr, ptr, ptr, ptr, [64 x %struct.dt_pthread_mutex_t], %struct.dt_pthread_mutex_t, %struct.dt_pthread_mutex_t, %struct.dt_pthread_mutex_t, %struct.dt_pthread_mutex_t, %struct.dt_pthread_mutex_t, ptr, ptr, ptr, ptr, ptr, ptr, ptr, ptr, ptr, ptr, ptr, ptr, ptr, %struct.dt_lua_state_t, ptr, double, ptr, i32, [47 x i32], i32, i32, ptr, ptr, %struct.dt_sys_resources_t, %struct.dt_backthumb_t, %struct.dt_gimp_t }
%struct.dt_codepath_t = type { i8, [3 x i8] }
%struct.dt_pthread_mutex_t = type { %union.pthread_mutex_t }
%union.pthread_mutex_t = type { %struct.__pthread_mutex_s }
%struct.__pthread_mutex_s = type { i32, i32, i32, i32, i32, i16, i16, %struct.__pthread_internal_list }
%struct.__pthread_internal_list = type { ptr, ptr }
%struct.dt_lua_state_t = type { i32 }
%struct.dt_sys_resources_t = type { i64, i64, ptr, ptr, i32 }
%struct.dt_backthumb_t = type { double, double, i32, i32, i32, i32 }
%struct.dt_gimp_t = type { i32, ptr, ptr, i32, i32 }
%struct.dt_film_t = type { i32, [512 x i8], %struct.dt_pthread_mutex_t, ptr, i32, i32, i32 }

@darktable = external global %struct.darktable_t, align 8
@.str.2 = private unnamed_addr constant [41 x i8] c"[sql] %s:%d, function %s(): prepare \22%s\22\00", align 1
@.str.3 = private unnamed_addr constant [115 x i8] c"generated/home/dtcxzyw/WorkSpace/Projects/compilers/llvm-opt-benchmark/bench/darktable/darktable/src/common/film.c\00", align 1
@stderr = external global ptr, align 8
@.str.5 = private unnamed_addr constant [53 x i8] c"sqlite3 error: %s:%d, function %s(), query \22%s\22: %s\0A\00", align 1
@.str.6 = private unnamed_addr constant [41 x i8] c"sqlite3 error: %s:%d, function %s(): %s\0A\00", align 1
@__FUNCTION__.dt_film_new = private unnamed_addr constant [12 x i8] c"dt_film_new\00", align 1
@.str.10 = private unnamed_addr constant [101 x i8] c"INSERT INTO main.film_rolls (id, access_timestamp, folder)  VALUES (NULL, strftime('%s', 'now'), ?1)\00", align 1
@.str.11 = private unnamed_addr constant [42 x i8] c"[film_new] failed to insert film roll! %s\00", align 1
@.str.12 = private unnamed_addr constant [59 x i8] c"INSERT INTO memory.film_folder (id, status) VALUES (?1, 1)\00", align 1

; Function Attrs: nounwind uwtable
define i32 @dt_film_new(ptr noundef %0, ptr noundef %1) #0 {
  %3 = alloca i32, align 4
  %4 = alloca ptr, align 8
  %5 = alloca ptr, align 8
  %6 = alloca ptr, align 8
  %7 = alloca ptr, align 8
  %8 = alloca i32, align 4
  %9 = alloca i32, align 4
  %10 = alloca i32, align 4
  %11 = alloca ptr, align 8
  %12 = alloca i32, align 4
  %13 = alloca i32, align 4
  %14 = alloca i32, align 4
  store ptr %0, ptr %4, align 8, !tbaa !6
  store ptr %1, ptr %5, align 8, !tbaa !68
  call void @llvm.lifetime.start.p0(i64 8, ptr %6) #8
  %15 = load ptr, ptr %4, align 8, !tbaa !6
  %16 = getelementptr inbounds nuw %struct.dt_film_t, ptr %15, i32 0, i32 0
  store i32 0, ptr %16, align 8, !tbaa !19
  %17 = load ptr, ptr %4, align 8, !tbaa !6
  %18 = getelementptr inbounds nuw %struct.dt_film_t, ptr %17, i32 0, i32 1
  %19 = getelementptr inbounds [512 x i8], ptr %18, i64 0, i64 0
  %20 = load ptr, ptr %5, align 8, !tbaa !68
  %21 = call i64 @g_strlcpy(ptr noundef %19, ptr noundef %20, i64 noundef 512)
  call void @llvm.lifetime.start.p0(i64 8, ptr %7) #8
  %22 = load ptr, ptr %4, align 8, !tbaa !6
  %23 = getelementptr inbounds nuw %struct.dt_film_t, ptr %22, i32 0, i32 1
  %24 = load ptr, ptr %4, align 8, !tbaa !6
  %25 = getelementptr inbounds nuw %struct.dt_film_t, ptr %24, i32 0, i32 1
  %26 = getelementptr inbounds [512 x i8], ptr %25, i64 0, i64 0
  %27 = call i64 @strlen(ptr noundef %26) #10
  %28 = sub i64 %27, 1
  %29 = getelementptr inbounds nuw [512 x i8], ptr %23, i64 0, i64 %28
  store ptr %29, ptr %7, align 8, !tbaa !68
  %30 = load ptr, ptr %7, align 8, !tbaa !68
  %31 = load i8, ptr %30, align 1, !tbaa !17
  %32 = sext i8 %31 to i32
  %33 = icmp eq i32 %32, 47
  br i1 %33, label %34, label %42

34:                                               ; preds = %2
  %35 = load ptr, ptr %7, align 8, !tbaa !68
  %36 = load ptr, ptr %4, align 8, !tbaa !6
  %37 = getelementptr inbounds nuw %struct.dt_film_t, ptr %36, i32 0, i32 1
  %38 = getelementptr inbounds [512 x i8], ptr %37, i64 0, i64 0
  %39 = icmp ne ptr %35, %38
  br i1 %39, label %40, label %42

40:                                               ; preds = %34
  %41 = load ptr, ptr %7, align 8, !tbaa !68
  store i8 0, ptr %41, align 1, !tbaa !17
  br label %42

42:                                               ; preds = %40, %34, %2
  %43 = load ptr, ptr %4, align 8, !tbaa !6
  %44 = getelementptr inbounds nuw %struct.dt_film_t, ptr %43, i32 0, i32 1
  %45 = getelementptr inbounds [512 x i8], ptr %44, i64 0, i64 0
  %46 = call i32 @dt_film_get_id(ptr noundef %45)
  %47 = load ptr, ptr %4, align 8, !tbaa !6
  %48 = getelementptr inbounds nuw %struct.dt_film_t, ptr %47, i32 0, i32 0
  store i32 %46, ptr %48, align 8, !tbaa !19
  %49 = load ptr, ptr %4, align 8, !tbaa !6
  %50 = getelementptr inbounds nuw %struct.dt_film_t, ptr %49, i32 0, i32 0
  %51 = load i32, ptr %50, align 8, !tbaa !19
  %52 = icmp sgt i32 %51, 0
  br i1 %52, label %174, label %53

53:                                               ; preds = %42
  br label %54

54:                                               ; preds = %53
  br label %55

55:                                               ; preds = %54
  %56 = load i32, ptr getelementptr inbounds nuw (%struct.darktable_t, ptr @darktable, i32 0, i32 2), align 8, !tbaa !25
  %57 = and i32 256, %56
  %58 = icmp ne i32 %57, 0
  br i1 %58, label %59, label %65

59:                                               ; preds = %55
  %60 = load i32, ptr getelementptr inbounds nuw (%struct.darktable_t, ptr @darktable, i32 0, i32 2), align 8, !tbaa !25
  %61 = xor i32 %60, -1
  %62 = and i32 0, %61
  %63 = icmp ne i32 %62, 0
  br i1 %63, label %65, label %64

64:                                               ; preds = %59
  call void (ptr, ...) @dt_print_ext(ptr noundef @.str.2, ptr noundef @.str.3, i32 noundef 232, ptr noundef @__FUNCTION__.dt_film_new, ptr noundef @.str.10)
  br label %65

65:                                               ; preds = %64, %59, %55
  br label %66

66:                                               ; preds = %65
  br label %67

67:                                               ; preds = %66
  call void @llvm.lifetime.start.p0(i64 4, ptr %8) #8
  %68 = load ptr, ptr getelementptr inbounds nuw (%struct.darktable_t, ptr @darktable, i32 0, i32 18), align 8, !tbaa !62
  %69 = call ptr @dt_database_get(ptr noundef %68)
  %70 = call i32 @sqlite3_prepare_v2(ptr noundef %69, ptr noundef @.str.10, i32 noundef -1, ptr noundef %6, ptr noundef null)
  store i32 %70, ptr %8, align 4, !tbaa !24
  %71 = load i32, ptr %8, align 4, !tbaa !24
  %72 = icmp ne i32 %71, 0
  br i1 %72, label %73, label %79

73:                                               ; preds = %67
  %74 = load ptr, ptr @stderr, align 8, !tbaa !63
  %75 = load ptr, ptr getelementptr inbounds nuw (%struct.darktable_t, ptr @darktable, i32 0, i32 18), align 8, !tbaa !62
  %76 = call ptr @dt_database_get(ptr noundef %75)
  %77 = call ptr @sqlite3_errmsg(ptr noundef %76)
  %78 = call i32 (ptr, ptr, ...) @fprintf(ptr noundef %74, ptr noundef @.str.5, ptr noundef @.str.3, i32 noundef 232, ptr noundef @__FUNCTION__.dt_film_new, ptr noundef @.str.10, ptr noundef %77) #8
  br label %79

79:                                               ; preds = %73, %67
  call void @llvm.lifetime.end.p0(i64 4, ptr %8) #8
  br label %80

80:                                               ; preds = %79
  br label %81

81:                                               ; preds = %80
  call void @llvm.lifetime.start.p0(i64 4, ptr %9) #8
  %82 = load ptr, ptr %6, align 8, !tbaa !65
  %83 = load ptr, ptr %4, align 8, !tbaa !6
  %84 = getelementptr inbounds nuw %struct.dt_film_t, ptr %83, i32 0, i32 1
  %85 = getelementptr inbounds [512 x i8], ptr %84, i64 0, i64 0
  %86 = call i32 @sqlite3_bind_text(ptr noundef %82, i32 noundef 1, ptr noundef %85, i32 noundef -1, ptr noundef null)
  store i32 %86, ptr %9, align 4, !tbaa !24
  %87 = load i32, ptr %9, align 4, !tbaa !24
  %88 = icmp ne i32 %87, 0
  br i1 %88, label %89, label %95

89:                                               ; preds = %81
  %90 = load ptr, ptr @stderr, align 8, !tbaa !63
  %91 = load ptr, ptr getelementptr inbounds nuw (%struct.darktable_t, ptr @darktable, i32 0, i32 18), align 8, !tbaa !62
  %92 = call ptr @dt_database_get(ptr noundef %91)
  %93 = call ptr @sqlite3_errmsg(ptr noundef %92)
  %94 = call i32 (ptr, ptr, ...) @fprintf(ptr noundef %90, ptr noundef @.str.6, ptr noundef @.str.3, i32 noundef 234, ptr noundef @__FUNCTION__.dt_film_new, ptr noundef %93) #8
  br label %95

95:                                               ; preds = %89, %81
  call void @llvm.lifetime.end.p0(i64 4, ptr %9) #8
  call void @llvm.lifetime.start.p0(i64 4, ptr %10) #8
  %96 = load ptr, ptr %6, align 8, !tbaa !65
  %97 = call i32 @sqlite3_step(ptr noundef %96)
  store i32 %97, ptr %10, align 4, !tbaa !24
  %98 = load i32, ptr %10, align 4, !tbaa !24
  %99 = icmp ne i32 %98, 101
  br i1 %99, label %100, label %113

100:                                              ; preds = %95
  br label %101

101:                                              ; preds = %100
  %102 = load i32, ptr getelementptr inbounds nuw (%struct.darktable_t, ptr @darktable, i32 0, i32 2), align 8, !tbaa !25
  %103 = xor i32 %102, -1
  %104 = and i32 0, %103
  %105 = icmp ne i32 %104, 0
  br i1 %105, label %110, label %106

106:                                              ; preds = %101
  %107 = load ptr, ptr getelementptr inbounds nuw (%struct.darktable_t, ptr @darktable, i32 0, i32 18), align 8, !tbaa !62
  %108 = call ptr @dt_database_get(ptr noundef %107)
  %109 = call ptr @sqlite3_errmsg(ptr noundef %108)
  call void (ptr, ...) @dt_print_ext(ptr noundef @.str.11, ptr noundef %109)
  br label %110

110:                                              ; preds = %106, %101
  br label %111

111:                                              ; preds = %110
  br label %112

112:                                              ; preds = %111
  br label %113

113:                                              ; preds = %112, %95
  %114 = load ptr, ptr %6, align 8, !tbaa !65
  %115 = call i32 @sqlite3_finalize(ptr noundef %114)
  %116 = load ptr, ptr %4, align 8, !tbaa !6
  %117 = getelementptr inbounds nuw %struct.dt_film_t, ptr %116, i32 0, i32 1
  %118 = getelementptr inbounds [512 x i8], ptr %117, i64 0, i64 0
  %119 = call i32 @dt_film_get_id(ptr noundef %118)
  %120 = load ptr, ptr %4, align 8, !tbaa !6
  %121 = getelementptr inbounds nuw %struct.dt_film_t, ptr %120, i32 0, i32 0
  store i32 %119, ptr %121, align 8, !tbaa !19
  %122 = load ptr, ptr %4, align 8, !tbaa !6
  %123 = getelementptr inbounds nuw %struct.dt_film_t, ptr %122, i32 0, i32 0
  %124 = load i32, ptr %123, align 8, !tbaa !19
  %125 = icmp sgt i32 %124, 0
  br i1 %125, label %126, label %173

126:                                              ; preds = %113
  call void @llvm.lifetime.start.p0(i64 8, ptr %11) #8
  br label %127

127:                                              ; preds = %126
  br label %128

128:                                              ; preds = %127
  %129 = load i32, ptr getelementptr inbounds nuw (%struct.darktable_t, ptr @darktable, i32 0, i32 2), align 8, !tbaa !25
  %130 = and i32 256, %129
  %131 = icmp ne i32 %130, 0
  br i1 %131, label %132, label %138

132:                                              ; preds = %128
  %133 = load i32, ptr getelementptr inbounds nuw (%struct.darktable_t, ptr @darktable, i32 0, i32 2), align 8, !tbaa !25
  %134 = xor i32 %133, -1
  %135 = and i32 0, %134
  %136 = icmp ne i32 %135, 0
  br i1 %136, label %138, label %137

137:                                              ; preds = %132
  call void (ptr, ...) @dt_print_ext(ptr noundef @.str.2, ptr noundef @.str.3, i32 noundef 250, ptr noundef @__FUNCTION__.dt_film_new, ptr noundef @.str.12)
  br label %138

138:                                              ; preds = %137, %132, %128
  br label %139

139:                                              ; preds = %138
  br label %140

140:                                              ; preds = %139
  call void @llvm.lifetime.start.p0(i64 4, ptr %12) #8
  %141 = load ptr, ptr getelementptr inbounds nuw (%struct.darktable_t, ptr @darktable, i32 0, i32 18), align 8, !tbaa !62
  %142 = call ptr @dt_database_get(ptr noundef %141)
  %143 = call i32 @sqlite3_prepare_v2(ptr noundef %142, ptr noundef @.str.12, i32 noundef -1, ptr noundef %11, ptr noundef null)
  store i32 %143, ptr %12, align 4, !tbaa !24
  %144 = load i32, ptr %12, align 4, !tbaa !24
  %145 = icmp ne i32 %144, 0
  br i1 %145, label %146, label %152

146:                                              ; preds = %140
  %147 = load ptr, ptr @stderr, align 8, !tbaa !63
  %148 = load ptr, ptr getelementptr inbounds nuw (%struct.darktable_t, ptr @darktable, i32 0, i32 18), align 8, !tbaa !62
  %149 = call ptr @dt_database_get(ptr noundef %148)
  %150 = call ptr @sqlite3_errmsg(ptr noundef %149)
  %151 = call i32 (ptr, ptr, ...) @fprintf(ptr noundef %147, ptr noundef @.str.5, ptr noundef @.str.3, i32 noundef 250, ptr noundef @__FUNCTION__.dt_film_new, ptr noundef @.str.12, ptr noundef %150) #8
  br label %152

152:                                              ; preds = %146, %140
  call void @llvm.lifetime.end.p0(i64 4, ptr %12) #8
  br label %153

153:                                              ; preds = %152
  br label %154

154:                                              ; preds = %153
  call void @llvm.lifetime.start.p0(i64 4, ptr %13) #8
  %155 = load ptr, ptr %11, align 8, !tbaa !65
  %156 = load ptr, ptr %4, align 8, !tbaa !6
  %157 = getelementptr inbounds nuw %struct.dt_film_t, ptr %156, i32 0, i32 0
  %158 = load i32, ptr %157, align 8, !tbaa !19
  %159 = call i32 @sqlite3_bind_int(ptr noundef %155, i32 noundef 1, i32 noundef %158)
  store i32 %159, ptr %13, align 4, !tbaa !24
  %160 = load i32, ptr %13, align 4, !tbaa !24
  %161 = icmp ne i32 %160, 0
  br i1 %161, label %162, label %168

162:                                              ; preds = %154
  %163 = load ptr, ptr @stderr, align 8, !tbaa !63
  %164 = load ptr, ptr getelementptr inbounds nuw (%struct.darktable_t, ptr @darktable, i32 0, i32 18), align 8, !tbaa !62
  %165 = call ptr @dt_database_get(ptr noundef %164)
  %166 = call ptr @sqlite3_errmsg(ptr noundef %165)
  %167 = call i32 (ptr, ptr, ...) @fprintf(ptr noundef %163, ptr noundef @.str.6, ptr noundef @.str.3, i32 noundef 252, ptr noundef @__FUNCTION__.dt_film_new, ptr noundef %166) #8
  br label %168

168:                                              ; preds = %162, %154
  call void @llvm.lifetime.end.p0(i64 4, ptr %13) #8
  %169 = load ptr, ptr %11, align 8, !tbaa !65
  %170 = call i32 @sqlite3_step(ptr noundef %169)
  %171 = load ptr, ptr %11, align 8, !tbaa !65
  %172 = call i32 @sqlite3_finalize(ptr noundef %171)
  call void @llvm.lifetime.end.p0(i64 8, ptr %11) #8
  br label %173

173:                                              ; preds = %168, %113
  call void @llvm.lifetime.end.p0(i64 4, ptr %10) #8
  br label %174

174:                                              ; preds = %173, %42
  %175 = load ptr, ptr %4, align 8, !tbaa !6
  %176 = getelementptr inbounds nuw %struct.dt_film_t, ptr %175, i32 0, i32 0
  %177 = load i32, ptr %176, align 8, !tbaa !19
  %178 = icmp sgt i32 %177, 0
  br i1 %178, label %180, label %179

179:                                              ; preds = %174
  store i32 0, ptr %3, align 4
  store i32 1, ptr %14, align 4
  br label %186

180:                                              ; preds = %174
  %181 = load ptr, ptr %4, align 8, !tbaa !6
  %182 = getelementptr inbounds nuw %struct.dt_film_t, ptr %181, i32 0, i32 5
  store i32 0, ptr %182, align 4, !tbaa !16
  %183 = load ptr, ptr %4, align 8, !tbaa !6
  %184 = getelementptr inbounds nuw %struct.dt_film_t, ptr %183, i32 0, i32 0
  %185 = load i32, ptr %184, align 8, !tbaa !19
  store i32 %185, ptr %3, align 4
  store i32 1, ptr %14, align 4
  br label %186

186:                                              ; preds = %180, %179
  call void @llvm.lifetime.end.p0(i64 8, ptr %7) #8
  call void @llvm.lifetime.end.p0(i64 8, ptr %6) #8
  %187 = load i32, ptr %3, align 4
  ret i32 %187
}