; Function Attrs: nounwind uwtable
define range(i32 0, -2147483648) i32 @dt_film_new(ptr noundef initializes((0, 4)) %0, ptr noundef %1) local_unnamed_addr #0 {
  %3 = alloca ptr, align 8
  %4 = alloca ptr, align 8
  call void @llvm.lifetime.start.p0(i64 8, ptr nonnull %3) #11
  store i32 0, ptr %0, align 8, !tbaa !9
  %5 = getelementptr inbounds nuw i8, ptr %0, i64 4
  %6 = tail call i64 @g_strlcpy(ptr noundef nonnull %5, ptr noundef %1, i64 noundef 512) #11
  %7 = tail call i64 @strlen(ptr noundef nonnull dereferenceable(1) %5) #14
  %8 = add i64 %7, -1
  %9 = getelementptr inbounds nuw [512 x i8], ptr %5, i64 0, i64 %8
  %10 = load i8, ptr %9, align 1, !tbaa !6
  %11 = icmp ne i8 %10, 47
  %.not = icmp samesign eq i64 %8, 0
  %or.cond = select i1 %11, i1 true, i1 %.not
  br i1 %or.cond, label %13, label %12

12:                                               ; preds = %2
  store i8 0, ptr %9, align 1, !tbaa !6
  br label %13

13:                                               ; preds = %12, %2
  %14 = tail call i32 @dt_film_get_id(ptr noundef nonnull %5)
  store i32 %14, ptr %0, align 8, !tbaa !9
  %15 = icmp sgt i32 %14, 0
  br i1 %15, label %.thread, label %16

16:                                               ; preds = %13
  %17 = load i32, ptr getelementptr inbounds nuw (i8, ptr @darktable, i64 8), align 8, !tbaa !16
  %18 = and i32 %17, 256
  %.not26 = icmp eq i32 %18, 0
  br i1 %.not26, label %20, label %19

19:                                               ; preds = %16
  tail call void (ptr, ...) @dt_print_ext(ptr noundef nonnull @.str.2, ptr noundef nonnull @.str.3, i32 noundef 232, ptr noundef nonnull @__FUNCTION__.dt_film_new, ptr noundef nonnull @.str.10) #11
  br label %20

20:                                               ; preds = %19, %16
  %21 = load ptr, ptr getelementptr inbounds nuw (i8, ptr @darktable, i64 136), align 8, !tbaa !53
  %22 = tail call ptr @dt_database_get(ptr noundef %21) #11
  %23 = call i32 @sqlite3_prepare_v2(ptr noundef %22, ptr noundef nonnull @.str.10, i32 noundef -1, ptr noundef nonnull %3, ptr noundef null) #11
  %.not27 = icmp eq i32 %23, 0
  br i1 %.not27, label %30, label %24

24:                                               ; preds = %20
  %25 = load ptr, ptr @stderr, align 8, !tbaa !54
  %26 = load ptr, ptr getelementptr inbounds nuw (i8, ptr @darktable, i64 136), align 8, !tbaa !53
  %27 = call ptr @dt_database_get(ptr noundef %26) #11
  %28 = call ptr @sqlite3_errmsg(ptr noundef %27) #11
  %29 = call i32 (ptr, ptr, ...) @fprintf(ptr noundef %25, ptr noundef nonnull @.str.5, ptr noundef nonnull @.str.3, i32 noundef 232, ptr noundef nonnull @__FUNCTION__.dt_film_new, ptr noundef nonnull @.str.10, ptr noundef %28) #12
  br label %30

30:                                               ; preds = %24, %20
  %31 = load ptr, ptr %3, align 8, !tbaa !56
  %32 = call i32 @sqlite3_bind_text(ptr noundef %31, i32 noundef 1, ptr noundef nonnull %5, i32 noundef -1, ptr noundef null) #11
  %.not28 = icmp eq i32 %32, 0
  br i1 %.not28, label %39, label %33

33:                                               ; preds = %30
  %34 = load ptr, ptr @stderr, align 8, !tbaa !54
  %35 = load ptr, ptr getelementptr inbounds nuw (i8, ptr @darktable, i64 136), align 8, !tbaa !53
  %36 = call ptr @dt_database_get(ptr noundef %35) #11
  %37 = call ptr @sqlite3_errmsg(ptr noundef %36) #11
  %38 = call i32 (ptr, ptr, ...) @fprintf(ptr noundef %34, ptr noundef nonnull @.str.6, ptr noundef nonnull @.str.3, i32 noundef 234, ptr noundef nonnull @__FUNCTION__.dt_film_new, ptr noundef %37) #12
  br label %39

39:                                               ; preds = %33, %30
  %40 = load ptr, ptr %3, align 8, !tbaa !56
  %41 = call i32 @sqlite3_step(ptr noundef %40) #11
  %.not29 = icmp eq i32 %41, 101
  br i1 %.not29, label %46, label %42

42:                                               ; preds = %39
  %43 = load ptr, ptr getelementptr inbounds nuw (i8, ptr @darktable, i64 136), align 8, !tbaa !53
  %44 = call ptr @dt_database_get(ptr noundef %43) #11
  %45 = call ptr @sqlite3_errmsg(ptr noundef %44) #11
  call void (ptr, ...) @dt_print_ext(ptr noundef nonnull @.str.11, ptr noundef %45) #11
  br label %46

46:                                               ; preds = %42, %39
  %47 = load ptr, ptr %3, align 8, !tbaa !56
  %48 = call i32 @sqlite3_finalize(ptr noundef %47) #11
  %49 = call i32 @dt_film_get_id(ptr noundef nonnull %5)
  store i32 %49, ptr %0, align 8, !tbaa !9
  %50 = icmp sgt i32 %49, 0
  br i1 %50, label %51, label %.thread33

51:                                               ; preds = %46
  call void @llvm.lifetime.start.p0(i64 8, ptr nonnull %4) #11
  %52 = load i32, ptr getelementptr inbounds nuw (i8, ptr @darktable, i64 8), align 8, !tbaa !16
  %53 = and i32 %52, 256
  %.not30 = icmp eq i32 %53, 0
  br i1 %.not30, label %55, label %54

54:                                               ; preds = %51
  call void (ptr, ...) @dt_print_ext(ptr noundef nonnull @.str.2, ptr noundef nonnull @.str.3, i32 noundef 250, ptr noundef nonnull @__FUNCTION__.dt_film_new, ptr noundef nonnull @.str.12) #11
  br label %55

55:                                               ; preds = %54, %51
  %56 = load ptr, ptr getelementptr inbounds nuw (i8, ptr @darktable, i64 136), align 8, !tbaa !53
  %57 = call ptr @dt_database_get(ptr noundef %56) #11
  %58 = call i32 @sqlite3_prepare_v2(ptr noundef %57, ptr noundef nonnull @.str.12, i32 noundef -1, ptr noundef nonnull %4, ptr noundef null) #11
  %.not31 = icmp eq i32 %58, 0
  br i1 %.not31, label %65, label %59

59:                                               ; preds = %55
  %60 = load ptr, ptr @stderr, align 8, !tbaa !54
  %61 = load ptr, ptr getelementptr inbounds nuw (i8, ptr @darktable, i64 136), align 8, !tbaa !53
  %62 = call ptr @dt_database_get(ptr noundef %61) #11
  %63 = call ptr @sqlite3_errmsg(ptr noundef %62) #11
  %64 = call i32 (ptr, ptr, ...) @fprintf(ptr noundef %60, ptr noundef nonnull @.str.5, ptr noundef nonnull @.str.3, i32 noundef 250, ptr noundef nonnull @__FUNCTION__.dt_film_new, ptr noundef nonnull @.str.12, ptr noundef %63) #12
  br label %65

65:                                               ; preds = %59, %55
  %66 = load ptr, ptr %4, align 8, !tbaa !56
  %67 = load i32, ptr %0, align 8, !tbaa !9
  %68 = call i32 @sqlite3_bind_int(ptr noundef %66, i32 noundef 1, i32 noundef %67) #11
  %.not32 = icmp eq i32 %68, 0
  br i1 %.not32, label %75, label %69

69:                                               ; preds = %65
  %70 = load ptr, ptr @stderr, align 8, !tbaa !54
  %71 = load ptr, ptr getelementptr inbounds nuw (i8, ptr @darktable, i64 136), align 8, !tbaa !53
  %72 = call ptr @dt_database_get(ptr noundef %71) #11
  %73 = call ptr @sqlite3_errmsg(ptr noundef %72) #11
  %74 = call i32 (ptr, ptr, ...) @fprintf(ptr noundef %70, ptr noundef nonnull @.str.6, ptr noundef nonnull @.str.3, i32 noundef 252, ptr noundef nonnull @__FUNCTION__.dt_film_new, ptr noundef %73) #12
  br label %75

75:                                               ; preds = %65, %69
  %76 = load ptr, ptr %4, align 8, !tbaa !56
  %77 = call i32 @sqlite3_step(ptr noundef %76) #11
  %78 = load ptr, ptr %4, align 8, !tbaa !56
  %79 = call i32 @sqlite3_finalize(ptr noundef %78) #11
  call void @llvm.lifetime.end.p0(i64 8, ptr nonnull %4) #11
  %.pr = load i32, ptr %0, align 8, !tbaa !9
  %80 = icmp sgt i32 %.pr, 0
  br i1 %80, label %.thread, label %.thread33

.thread:                                          ; preds = %13, %75
  %81 = phi i32 [ %.pr, %75 ], [ %14, %13 ]
  %82 = getelementptr inbounds nuw i8, ptr %0, i64 572
  store i32 0, ptr %82, align 4, !tbaa !60
  br label %.thread33

.thread33:                                        ; preds = %46, %75, %.thread
  %.0 = phi i32 [ %81, %.thread ], [ 0, %75 ], [ 0, %46 ]
  call void @llvm.lifetime.end.p0(i64 8, ptr nonnull %3) #11
  ret i32 %.0
}